target datalayout = "e-m:e-p270:32:32-p271:32:32-p272:64:64-i64:64-i128:128-f80:128-n8:16:32:64-S128"
target triple = "x86_64-pc-linux-gnu"

%struct.prefix_code_symbol = type { i16, i16 }

; Function Attrs: nounwind null_pointer_is_valid sspstrong uwtable
define internal i32 @compare_symbols(ptr noundef %0, ptr noundef %1) #8 {
  %3 = alloca i32, align 4
  %4 = alloca ptr, align 8
  %5 = alloca ptr, align 8
  %6 = alloca ptr, align 8
  %7 = alloca ptr, align 8
  %8 = alloca i32, align 4
  store ptr %0, ptr %4, align 8
  store ptr %1, ptr %5, align 8
  call void @llvm.lifetime.start.p0(i64 8, ptr %6) #11
  %9 = load ptr, ptr %4, align 8
  store ptr %9, ptr %6, align 8
  call void @llvm.lifetime.start.p0(i64 8, ptr %7) #11
  %10 = load ptr, ptr %5, align 8
  store ptr %10, ptr %7, align 8
  %11 = load ptr, ptr %6, align 8
  %12 = getelementptr inbounds nuw %struct.prefix_code_symbol, ptr %11, i32 0, i32 1
  %13 = load i16, ptr %12, align 2
  %14 = zext i16 %13 to i32
  %15 = load ptr, ptr %7, align 8
  %16 = getelementptr inbounds nuw %struct.prefix_code_symbol, ptr %15, i32 0, i32 1
  %17 = load i16, ptr %16, align 2
  %18 = zext i16 %17 to i32
  %19 = icmp slt i32 %14, %18
  br i1 %19, label %20, label %21

20:                                               ; preds = %2
  store i32 -1, ptr %3, align 4
  store i32 1, ptr %8, align 4
  br label %55

21:                                               ; preds = %2
  %22 = load ptr, ptr %6, align 8
  %23 = getelementptr inbounds nuw %struct.prefix_code_symbol, ptr %22, i32 0, i32 1
  %24 = load i16, ptr %23, align 2
  %25 = zext i16 %24 to i32
  %26 = load ptr, ptr %7, align 8
  %27 = getelementptr inbounds nuw %struct.prefix_code_symbol, ptr %26, i32 0, i32 1
  %28 = load i16, ptr %27, align 2
  %29 = zext i16 %28 to i32
  %30 = icmp sgt i32 %25, %29
  br i1 %30, label %31, label %32

31:                                               ; preds = %21
  store i32 1, ptr %3, align 4
  store i32 1, ptr %8, align 4
  br label %55

32:                                               ; preds = %21
  %33 = load ptr, ptr %6, align 8
  %34 = getelementptr inbounds nuw %struct.prefix_code_symbol, ptr %33, i32 0, i32 0
  %35 = load i16, ptr %34, align 2
  %36 = zext i16 %35 to i32
  %37 = load ptr, ptr %7, align 8
  %38 = getelementptr inbounds nuw %struct.prefix_code_symbol, ptr %37, i32 0, i32 0
  %39 = load i16, ptr %38, align 2
  %40 = zext i16 %39 to i32
  %41 = icmp slt i32 %36, %40
  br i1 %41, label %42, label %43

42:                                               ; preds = %32
  store i32 -1, ptr %3, align 4
  store i32 1, ptr %8, align 4
  br label %55

43:                                               ; preds = %32
  %44 = load ptr, ptr %6, align 8
  %45 = getelementptr inbounds nuw %struct.prefix_code_symbol, ptr %44, i32 0, i32 0
  %46 = load i16, ptr %45, align 2
  %47 = zext i16 %46 to i32
  %48 = load ptr, ptr %7, align 8
  %49 = getelementptr inbounds nuw %struct.prefix_code_symbol, ptr %48, i32 0, i32 0
  %50 = load i16, ptr %49, align 2
  %51 = zext i16 %50 to i32
  %52 = icmp sgt i32 %47, %51
  br i1 %52, label %53, label %54

53:                                               ; preds = %43
  store i32 1, ptr %3, align 4
  store i32 1, ptr %8, align 4
  br label %55

54:                                               ; preds = %43
  store i32 0, ptr %3, align 4
  store i32 1, ptr %8, align 4
  br label %55

55:                                               ; preds = %54, %53, %42, %31, %20
  call void @llvm.lifetime.end.p0(i64 8, ptr %7) #11
  call void @llvm.lifetime.end.p0(i64 8, ptr %6) #11
  %56 = load i32, ptr %3, align 4
  ret i32 %56
}