; Function Attrs: mustprogress nofree norecurse nosync nounwind null_pointer_is_valid sspstrong willreturn memory(argmem: read) uwtable
define internal range(i32 -1, 2) i32 @compare_symbols(ptr noundef readonly captures(none) %0, ptr noundef readonly captures(none) %1) #8 {
  %3 = getelementptr inbounds nuw i8, ptr %0, i64 2
  %4 = load i16, ptr %3, align 2
  %5 = getelementptr inbounds nuw i8, ptr %1, i64 2
  %6 = load i16, ptr %5, align 2
  %7 = icmp ult i16 %4, %6
  br i1 %7, label %16, label %8

8:                                                ; preds = %2
  %9 = icmp ugt i16 %4, %6
  br i1 %9, label %16, label %10

10:                                               ; preds = %8
  %11 = load i16, ptr %0, align 2
  %12 = load i16, ptr %1, align 2
  %13 = icmp ult i16 %11, %12
  br i1 %13, label %16, label %14

14:                                               ; preds = %10
  %15 = icmp ugt i16 %11, %12
  %. = zext i1 %15 to i32
  br label %16

16:                                               ; preds = %14, %10, %8, %2
  %.0 = phi i32 [ -1, %2 ], [ 1, %8 ], [ -1, %10 ], [ %., %14 ]
  ret i32 %.0
}